; Function Attrs: mustprogress nofree norecurse nosync nounwind willreturn memory(write, argmem: readwrite, inaccessiblemem: none) uwtable
define dso_local noundef nonnull align 8 dereferenceable(16) ptr @_ZN4absl12log_internal10LogMessage13WithVerbosityEi(ptr noundef nonnull readonly returned align 8 captures(ret: address, provenance) dereferenceable(16) %0, i32 noundef %1) local_unnamed_addr #13 align 2 {
  %3 = icmp eq i32 %1, -1
  %.sroa.speculated = tail call i32 @llvm.smax.i32(i32 %1, i32 0)
  %.sroa.speculated.sink = select i1 %3, i32 -1, i32 %.sroa.speculated
  %4 = getelementptr inbounds nuw i8, ptr %0, i64 8
  %5 = load ptr, ptr %4, align 8, !tbaa !4
  %6 = getelementptr inbounds nuw i8, ptr %5, i64 44
  store i32 %.sroa.speculated.sink, ptr %6, align 4, !tbaa !87
  ret ptr %0
}